target datalayout = "e-m:e-p270:32:32-p271:32:32-p272:64:64-i64:64-i128:128-f80:128-n8:16:32:64-S128"
target triple = "x86_64-pc-linux-gnu"

; Function Attrs: nounwind uwtable
define dso_local zeroext i1 @launch_common_step_retry_errno(i32 noundef %0) #0 {
  %2 = alloca i1, align 1
  %3 = alloca i32, align 4
  store i32 %0, ptr %3, align 4
  %4 = load i32, ptr %3, align 4
  %5 = icmp eq i32 %4, 11
  br i1 %5, label %21, label %6

6:                                                ; preds = %1
  %7 = load i32, ptr %3, align 4
  %8 = icmp eq i32 %7, 2037
  br i1 %8, label %21, label %9

9:                                                ; preds = %6
  %10 = load i32, ptr %3, align 4
  %11 = icmp eq i32 %10, 2079
  br i1 %11, label %21, label %12

12:                                               ; preds = %9
  %13 = load i32, ptr %3, align 4
  %14 = icmp eq i32 %13, 2016
  br i1 %14, label %21, label %15

15:                                               ; preds = %12
  %16 = load i32, ptr %3, align 4
  %17 = icmp eq i32 %16, 2059
  br i1 %17, label %21, label %18

18:                                               ; preds = %15
  %19 = load i32, ptr %3, align 4
  %20 = icmp eq i32 %19, 5004
  br i1 %20, label %21, label %22

21:                                               ; preds = %18, %15, %12, %9, %6, %1
  store i1 true, ptr %2, align 1
  br label %23

22:                                               ; preds = %18
  store i1 false, ptr %2, align 1
  br label %23

23:                                               ; preds = %22, %21
  %24 = load i1, ptr %2, align 1
  ret i1 %24
}