; Function Attrs: mustprogress nofree norecurse nosync nounwind willreturn memory(none) uwtable
define dso_local zeroext i1 @launch_common_step_retry_errno(i32 noundef %0) local_unnamed_addr #7 {
  %2 = icmp eq i32 %0, 11
  %3 = icmp eq i32 %0, 2037
  %or.cond = or i1 %2, %3
  %4 = icmp eq i32 %0, 2079
  %or.cond3 = or i1 %4, %or.cond
  %5 = icmp eq i32 %0, 2016
  %or.cond5 = or i1 %5, %or.cond3
  %6 = icmp eq i32 %0, 2059
  %or.cond7 = or i1 %6, %or.cond5
  %7 = icmp eq i32 %0, 5004
  %or.cond9 = or i1 %7, %or.cond7
  ret i1 %or.cond9
}